
_main:

;segment7.c,1 :: 		void main() {
;segment7.c,2 :: 		TRISB=0x00;
	CLRF       TRISB+0
;segment7.c,3 :: 		portb=0x00;
	CLRF       PORTB+0
;segment7.c,4 :: 		while(1)
L_main0:
;segment7.c,6 :: 		portb=0x3f  ;
	MOVLW      63
	MOVWF      PORTB+0
;segment7.c,7 :: 		delay_ms(1000);
	MOVLW      11
	MOVWF      R11+0
	MOVLW      38
	MOVWF      R12+0
	MOVLW      93
	MOVWF      R13+0
L_main2:
	DECFSZ     R13+0, 1
	GOTO       L_main2
	DECFSZ     R12+0, 1
	GOTO       L_main2
	DECFSZ     R11+0, 1
	GOTO       L_main2
	NOP
	NOP
;segment7.c,9 :: 		portb=0x06  ;
	MOVLW      6
	MOVWF      PORTB+0
;segment7.c,10 :: 		delay_ms(1000);
	MOVLW      11
	MOVWF      R11+0
	MOVLW      38
	MOVWF      R12+0
	MOVLW      93
	MOVWF      R13+0
L_main3:
	DECFSZ     R13+0, 1
	GOTO       L_main3
	DECFSZ     R12+0, 1
	GOTO       L_main3
	DECFSZ     R11+0, 1
	GOTO       L_main3
	NOP
	NOP
;segment7.c,12 :: 		portb=0x5b  ;
	MOVLW      91
	MOVWF      PORTB+0
;segment7.c,13 :: 		delay_ms(1000);
	MOVLW      11
	MOVWF      R11+0
	MOVLW      38
	MOVWF      R12+0
	MOVLW      93
	MOVWF      R13+0
L_main4:
	DECFSZ     R13+0, 1
	GOTO       L_main4
	DECFSZ     R12+0, 1
	GOTO       L_main4
	DECFSZ     R11+0, 1
	GOTO       L_main4
	NOP
	NOP
;segment7.c,15 :: 		portb=0x4f  ;
	MOVLW      79
	MOVWF      PORTB+0
;segment7.c,16 :: 		delay_ms(1000);
	MOVLW      11
	MOVWF      R11+0
	MOVLW      38
	MOVWF      R12+0
	MOVLW      93
	MOVWF      R13+0
L_main5:
	DECFSZ     R13+0, 1
	GOTO       L_main5
	DECFSZ     R12+0, 1
	GOTO       L_main5
	DECFSZ     R11+0, 1
	GOTO       L_main5
	NOP
	NOP
;segment7.c,18 :: 		portb=0x66  ;
	MOVLW      102
	MOVWF      PORTB+0
;segment7.c,19 :: 		delay_ms(1000);
	MOVLW      11
	MOVWF      R11+0
	MOVLW      38
	MOVWF      R12+0
	MOVLW      93
	MOVWF      R13+0
L_main6:
	DECFSZ     R13+0, 1
	GOTO       L_main6
	DECFSZ     R12+0, 1
	GOTO       L_main6
	DECFSZ     R11+0, 1
	GOTO       L_main6
	NOP
	NOP
;segment7.c,21 :: 		portb=0x6d  ;
	MOVLW      109
	MOVWF      PORTB+0
;segment7.c,22 :: 		delay_ms(1000);
	MOVLW      11
	MOVWF      R11+0
	MOVLW      38
	MOVWF      R12+0
	MOVLW      93
	MOVWF      R13+0
L_main7:
	DECFSZ     R13+0, 1
	GOTO       L_main7
	DECFSZ     R12+0, 1
	GOTO       L_main7
	DECFSZ     R11+0, 1
	GOTO       L_main7
	NOP
	NOP
;segment7.c,24 :: 		portb=0x7d  ;
	MOVLW      125
	MOVWF      PORTB+0
;segment7.c,25 :: 		delay_ms(1000);
	MOVLW      11
	MOVWF      R11+0
	MOVLW      38
	MOVWF      R12+0
	MOVLW      93
	MOVWF      R13+0
L_main8:
	DECFSZ     R13+0, 1
	GOTO       L_main8
	DECFSZ     R12+0, 1
	GOTO       L_main8
	DECFSZ     R11+0, 1
	GOTO       L_main8
	NOP
	NOP
;segment7.c,27 :: 		portb=0x07  ;
	MOVLW      7
	MOVWF      PORTB+0
;segment7.c,28 :: 		delay_ms(1000);
	MOVLW      11
	MOVWF      R11+0
	MOVLW      38
	MOVWF      R12+0
	MOVLW      93
	MOVWF      R13+0
L_main9:
	DECFSZ     R13+0, 1
	GOTO       L_main9
	DECFSZ     R12+0, 1
	GOTO       L_main9
	DECFSZ     R11+0, 1
	GOTO       L_main9
	NOP
	NOP
;segment7.c,30 :: 		portb=0xff  ;
	MOVLW      255
	MOVWF      PORTB+0
;segment7.c,31 :: 		delay_ms(1000);
	MOVLW      11
	MOVWF      R11+0
	MOVLW      38
	MOVWF      R12+0
	MOVLW      93
	MOVWF      R13+0
L_main10:
	DECFSZ     R13+0, 1
	GOTO       L_main10
	DECFSZ     R12+0, 1
	GOTO       L_main10
	DECFSZ     R11+0, 1
	GOTO       L_main10
	NOP
	NOP
;segment7.c,33 :: 		portb=0x6f  ;
	MOVLW      111
	MOVWF      PORTB+0
;segment7.c,34 :: 		delay_ms(1000);
	MOVLW      11
	MOVWF      R11+0
	MOVLW      38
	MOVWF      R12+0
	MOVLW      93
	MOVWF      R13+0
L_main11:
	DECFSZ     R13+0, 1
	GOTO       L_main11
	DECFSZ     R12+0, 1
	GOTO       L_main11
	DECFSZ     R11+0, 1
	GOTO       L_main11
	NOP
	NOP
;segment7.c,36 :: 		}
	GOTO       L_main0
;segment7.c,37 :: 		}
L_end_main:
	GOTO       $+0
; end of _main
